; Function Attrs: mustprogress nounwind uwtable
define dso_local void @_ZNK4llvm13RegBankSelect11MappingCost5printERNS_11raw_ostreamE(ptr noundef nonnull readonly align 8 captures(none) dereferenceable(24) %0, ptr noundef nonnull align 8 dereferenceable(48) %1) local_unnamed_addr #0 align 2 {
  %3 = load i64, ptr %0, align 8
  %4 = icmp eq i64 %3, -1
  br i1 %4, label %5, label %26

5:                                                ; preds = %2
  %6 = getelementptr inbounds nuw i8, ptr %0, i64 8
  %7 = load i64, ptr %6, align 8
  %8 = icmp eq i64 %7, -1
  %9 = getelementptr inbounds nuw i8, ptr %0, i64 16
  %10 = load i64, ptr %9, align 8
  %11 = icmp eq i64 %10, -1
  %or.cond18 = select i1 %8, i1 %11, i1 false
  br i1 %or.cond18, label %12, label %_ZNK4llvm13RegBankSelect11MappingCost11isSaturatedEv.exit.thread

12:                                               ; preds = %5
  %13 = getelementptr inbounds nuw i8, ptr %1, i64 24
  %14 = load ptr, ptr %13, align 8
  %15 = getelementptr inbounds nuw i8, ptr %1, i64 32
  %16 = load ptr, ptr %15, align 8
  %17 = ptrtoint ptr %14 to i64
  %18 = ptrtoint ptr %16 to i64
  %19 = sub i64 %17, %18
  %20 = icmp ult i64 %19, 10
  br i1 %20, label %21, label %23

21:                                               ; preds = %12
  %22 = tail call noundef nonnull align 8 dereferenceable(48) ptr @_ZN4llvm11raw_ostream5writeEPKcm(ptr noundef nonnull align 8 dereferenceable(48) %1, ptr noundef nonnull @.str.8, i64 noundef 10) #21
  br label %_ZN4llvm11raw_ostreamlsEPKc.exit

23:                                               ; preds = %12
  tail call void @llvm.memcpy.p0.p0.i64(ptr noundef nonnull align 1 dereferenceable(10) %16, ptr noundef nonnull align 1 dereferenceable(10) @.str.8, i64 10, i1 false)
  %24 = load ptr, ptr %15, align 8
  %25 = getelementptr inbounds nuw i8, ptr %24, i64 10
  store ptr %25, ptr %15, align 8
  br label %_ZN4llvm11raw_ostreamlsEPKc.exit

26:                                               ; preds = %2
  %27 = icmp eq i64 %3, -2
  %28 = getelementptr inbounds nuw i8, ptr %0, i64 8
  %29 = load i64, ptr %28, align 8
  %30 = icmp eq i64 %29, -1
  %or.cond.i = select i1 %27, i1 %30, i1 false
  %31 = getelementptr inbounds nuw i8, ptr %0, i64 16
  %32 = load i64, ptr %31, align 8
  %33 = icmp eq i64 %32, -1
  %or.cond = select i1 %or.cond.i, i1 %33, i1 false
  br i1 %or.cond, label %34, label %_ZNK4llvm13RegBankSelect11MappingCost11isSaturatedEv.exit.thread

34:                                               ; preds = %26
  %35 = getelementptr inbounds nuw i8, ptr %1, i64 24
  %36 = load ptr, ptr %35, align 8
  %37 = getelementptr inbounds nuw i8, ptr %1, i64 32
  %38 = load ptr, ptr %37, align 8
  %39 = ptrtoint ptr %36 to i64
  %40 = ptrtoint ptr %38 to i64
  %41 = sub i64 %39, %40
  %42 = icmp ult i64 %41, 9
  br i1 %42, label %43, label %45

43:                                               ; preds = %34
  %44 = tail call noundef nonnull align 8 dereferenceable(48) ptr @_ZN4llvm11raw_ostream5writeEPKcm(ptr noundef nonnull align 8 dereferenceable(48) %1, ptr noundef nonnull @.str.9, i64 noundef 9) #21
  br label %_ZN4llvm11raw_ostreamlsEPKc.exit

45:                                               ; preds = %34
  tail call void @llvm.memcpy.p0.p0.i64(ptr noundef nonnull align 1 dereferenceable(9) %38, ptr noundef nonnull align 1 dereferenceable(9) @.str.9, i64 9, i1 false)
  %46 = load ptr, ptr %37, align 8
  %47 = getelementptr inbounds nuw i8, ptr %46, i64 9
  store ptr %47, ptr %37, align 8
  br label %_ZN4llvm11raw_ostreamlsEPKc.exit

_ZNK4llvm13RegBankSelect11MappingCost11isSaturatedEv.exit.thread: ; preds = %5, %26
  %48 = phi i64 [ %32, %26 ], [ %10, %5 ]
  %49 = phi ptr [ %28, %26 ], [ %6, %5 ]
  %50 = tail call noundef nonnull align 8 dereferenceable(48) ptr @_ZN4llvm11raw_ostreamlsEm(ptr noundef nonnull align 8 dereferenceable(48) %1, i64 noundef %48) #21
  %51 = getelementptr inbounds nuw i8, ptr %50, i64 24
  %52 = load ptr, ptr %51, align 8
  %53 = getelementptr inbounds nuw i8, ptr %50, i64 32
  %54 = load ptr, ptr %53, align 8
  %55 = ptrtoint ptr %52 to i64
  %56 = ptrtoint ptr %54 to i64
  %57 = sub i64 %55, %56
  %58 = icmp ult i64 %57, 3
  br i1 %58, label %59, label %61

59:                                               ; preds = %_ZNK4llvm13RegBankSelect11MappingCost11isSaturatedEv.exit.thread
  %60 = tail call noundef nonnull align 8 dereferenceable(48) ptr @_ZN4llvm11raw_ostream5writeEPKcm(ptr noundef nonnull align 8 dereferenceable(48) %50, ptr noundef nonnull @.str.10, i64 noundef 3) #21
  br label %_ZN4llvm11raw_ostreamlsEPKc.exit9

61:                                               ; preds = %_ZNK4llvm13RegBankSelect11MappingCost11isSaturatedEv.exit.thread
  tail call void @llvm.memcpy.p0.p0.i64(ptr noundef nonnull align 1 dereferenceable(3) %54, ptr noundef nonnull align 1 dereferenceable(3) @.str.10, i64 3, i1 false)
  %62 = load ptr, ptr %53, align 8
  %63 = getelementptr inbounds nuw i8, ptr %62, i64 3
  store ptr %63, ptr %53, align 8
  br label %_ZN4llvm11raw_ostreamlsEPKc.exit9

_ZN4llvm11raw_ostreamlsEPKc.exit9:                ; preds = %59, %61
  %.0.i.i8 = phi ptr [ %60, %59 ], [ %50, %61 ]
  %64 = load i64, ptr %0, align 8
  %65 = tail call noundef nonnull align 8 dereferenceable(48) ptr @_ZN4llvm11raw_ostreamlsEm(ptr noundef nonnull align 8 dereferenceable(48) %.0.i.i8, i64 noundef %64) #21
  %66 = getelementptr inbounds nuw i8, ptr %65, i64 24
  %67 = load ptr, ptr %66, align 8
  %68 = getelementptr inbounds nuw i8, ptr %65, i64 32
  %69 = load ptr, ptr %68, align 8
  %70 = ptrtoint ptr %67 to i64
  %71 = ptrtoint ptr %69 to i64
  %72 = sub i64 %70, %71
  %73 = icmp ult i64 %72, 3
  br i1 %73, label %74, label %76

74:                                               ; preds = %_ZN4llvm11raw_ostreamlsEPKc.exit9
  %75 = tail call noundef nonnull align 8 dereferenceable(48) ptr @_ZN4llvm11raw_ostream5writeEPKcm(ptr noundef nonnull align 8 dereferenceable(48) %65, ptr noundef nonnull @.str.11, i64 noundef 3) #21
  br label %_ZN4llvm11raw_ostreamlsEPKc.exit12

76:                                               ; preds = %_ZN4llvm11raw_ostreamlsEPKc.exit9
  tail call void @llvm.memcpy.p0.p0.i64(ptr noundef nonnull align 1 dereferenceable(3) %69, ptr noundef nonnull align 1 dereferenceable(3) @.str.11, i64 3, i1 false)
  %77 = load ptr, ptr %68, align 8
  %78 = getelementptr inbounds nuw i8, ptr %77, i64 3
  store ptr %78, ptr %68, align 8
  br label %_ZN4llvm11raw_ostreamlsEPKc.exit12

_ZN4llvm11raw_ostreamlsEPKc.exit12:               ; preds = %74, %76
  %.0.i.i11 = phi ptr [ %75, %74 ], [ %65, %76 ]
  %79 = load i64, ptr %49, align 8
  %80 = tail call noundef nonnull align 8 dereferenceable(48) ptr @_ZN4llvm11raw_ostreamlsEm(ptr noundef nonnull align 8 dereferenceable(48) %.0.i.i11, i64 noundef %79) #21
  br label %_ZN4llvm11raw_ostreamlsEPKc.exit

_ZN4llvm11raw_ostreamlsEPKc.exit:                 ; preds = %45, %43, %23, %21, %_ZN4llvm11raw_ostreamlsEPKc.exit12
  ret void
}